
_CopyConst2Ram:

;Temp.c,37 :: 		char * CopyConst2Ram(char * dest, const char * src){
;Temp.c,39 :: 		d = dest;
	MOVF        FARG_CopyConst2Ram_dest+0, 0 
	MOVWF       R5 
	MOVF        FARG_CopyConst2Ram_dest+1, 0 
	MOVWF       R6 
;Temp.c,40 :: 		for(;*dest++ = *src++;)
L_CopyConst2Ram0:
	MOVF        FARG_CopyConst2Ram_dest+0, 0 
	MOVWF       R3 
	MOVF        FARG_CopyConst2Ram_dest+1, 0 
	MOVWF       R4 
	INFSNZ      FARG_CopyConst2Ram_dest+0, 1 
	INCF        FARG_CopyConst2Ram_dest+1, 1 
	MOVF        FARG_CopyConst2Ram_src+0, 0 
	MOVWF       R0 
	MOVF        FARG_CopyConst2Ram_src+1, 0 
	MOVWF       R1 
	MOVF        FARG_CopyConst2Ram_src+2, 0 
	MOVWF       R2 
	MOVLW       1
	ADDWF       FARG_CopyConst2Ram_src+0, 1 
	MOVLW       0
	ADDWFC      FARG_CopyConst2Ram_src+1, 1 
	ADDWFC      FARG_CopyConst2Ram_src+2, 1 
	MOVF        R0, 0 
	MOVWF       TBLPTRL 
	MOVF        R1, 0 
	MOVWF       TBLPTRH 
	MOVF        R2, 0 
	MOVWF       TBLPTRU 
	TBLRD*+
	MOVFF       TABLAT+0, R0
	MOVFF       R3, FSR1
	MOVFF       R4, FSR1H
	MOVF        R0, 0 
	MOVWF       POSTINC1+0 
	MOVFF       R3, FSR0
	MOVFF       R4, FSR0H
	MOVF        POSTINC0+0, 1 
	BTFSC       STATUS+0, 2 
	GOTO        L_CopyConst2Ram1
;Temp.c,41 :: 		;
	GOTO        L_CopyConst2Ram0
L_CopyConst2Ram1:
;Temp.c,43 :: 		return d;
	MOVF        R5, 0 
	MOVWF       R0 
	MOVF        R6, 0 
	MOVWF       R1 
;Temp.c,44 :: 		}
L_end_CopyConst2Ram:
	RETURN      0
; end of _CopyConst2Ram

_wait_for_input:

;Temp.c,46 :: 		int wait_for_input(char *input, int timeout){
;Temp.c,48 :: 		int i = 0;int mils = 0;
	CLRF        wait_for_input_i_L0+0 
	CLRF        wait_for_input_i_L0+1 
	CLRF        wait_for_input_mils_L0+0 
	CLRF        wait_for_input_mils_L0+1 
;Temp.c,50 :: 		memset(buffer,'\0',sizeof(buffer)-1);
	MOVLW       wait_for_input_buffer_L0+0
	MOVWF       FARG_memset_p1+0 
	MOVLW       hi_addr(wait_for_input_buffer_L0+0)
	MOVWF       FARG_memset_p1+1 
	CLRF        FARG_memset_character+0 
	MOVLW       29
	MOVWF       FARG_memset_n+0 
	MOVLW       0
	MOVWF       FARG_memset_n+1 
	CALL        _memset+0, 0
;Temp.c,51 :: 		INTCON.GIE = 0;
	BCF         INTCON+0, 7 
;Temp.c,53 :: 		while (mils <= timeout*1000){
L_wait_for_input3:
	MOVF        FARG_wait_for_input_timeout+0, 0 
	MOVWF       R0 
	MOVF        FARG_wait_for_input_timeout+1, 0 
	MOVWF       R1 
	MOVLW       232
	MOVWF       R4 
	MOVLW       3
	MOVWF       R5 
	CALL        _Mul_16X16_U+0, 0
	MOVLW       128
	XORWF       R1, 0 
	MOVWF       R2 
	MOVLW       128
	XORWF       wait_for_input_mils_L0+1, 0 
	SUBWF       R2, 0 
	BTFSS       STATUS+0, 2 
	GOTO        L__wait_for_input97
	MOVF        wait_for_input_mils_L0+0, 0 
	SUBWF       R0, 0 
L__wait_for_input97:
	BTFSS       STATUS+0, 0 
	GOTO        L_wait_for_input4
;Temp.c,54 :: 		if (UART1_Data_Ready){
	MOVLW       _UART1_Data_Ready+0
	MOVWF       R0 
	MOVLW       hi_addr(_UART1_Data_Ready+0)
	MOVWF       R1 
	MOVLW       0
	MOVWF       R2 
	MOVLW       0
	MOVWF       R3 
	MOVF        R0, 0 
	IORWF       R1, 0 
	IORWF       R2, 0 
	IORWF       R3, 0 
	BTFSC       STATUS+0, 2 
	GOTO        L_wait_for_input5
;Temp.c,55 :: 		if (i == 30) i = 0;
	MOVLW       0
	XORWF       wait_for_input_i_L0+1, 0 
	BTFSS       STATUS+0, 2 
	GOTO        L__wait_for_input98
	MOVLW       30
	XORWF       wait_for_input_i_L0+0, 0 
L__wait_for_input98:
	BTFSS       STATUS+0, 2 
	GOTO        L_wait_for_input6
	CLRF        wait_for_input_i_L0+0 
	CLRF        wait_for_input_i_L0+1 
L_wait_for_input6:
;Temp.c,56 :: 		buffer[i++] = UART1_Read();
	MOVLW       wait_for_input_buffer_L0+0
	ADDWF       wait_for_input_i_L0+0, 0 
	MOVWF       FLOC__wait_for_input+0 
	MOVLW       hi_addr(wait_for_input_buffer_L0+0)
	ADDWFC      wait_for_input_i_L0+1, 0 
	MOVWF       FLOC__wait_for_input+1 
	CALL        _UART1_Read+0, 0
	MOVFF       FLOC__wait_for_input+0, FSR1
	MOVFF       FLOC__wait_for_input+1, FSR1H
	MOVF        R0, 0 
	MOVWF       POSTINC1+0 
	INFSNZ      wait_for_input_i_L0+0, 1 
	INCF        wait_for_input_i_L0+1, 1 
;Temp.c,57 :: 		if (strstr(buffer,input) != 0){
	MOVLW       wait_for_input_buffer_L0+0
	MOVWF       FARG_strstr_s1+0 
	MOVLW       hi_addr(wait_for_input_buffer_L0+0)
	MOVWF       FARG_strstr_s1+1 
	MOVF        FARG_wait_for_input_input+0, 0 
	MOVWF       FARG_strstr_s2+0 
	MOVF        FARG_wait_for_input_input+1, 0 
	MOVWF       FARG_strstr_s2+1 
	CALL        _strstr+0, 0
	MOVLW       0
	XORWF       R1, 0 
	BTFSS       STATUS+0, 2 
	GOTO        L__wait_for_input99
	MOVLW       0
	XORWF       R0, 0 
L__wait_for_input99:
	BTFSC       STATUS+0, 2 
	GOTO        L_wait_for_input7
;Temp.c,58 :: 		INTCON.GIE = 1;
	BSF         INTCON+0, 7 
;Temp.c,59 :: 		return 1;
	MOVLW       1
	MOVWF       R0 
	MOVLW       0
	MOVWF       R1 
	GOTO        L_end_wait_for_input
;Temp.c,60 :: 		}
L_wait_for_input7:
;Temp.c,61 :: 		} else {
	GOTO        L_wait_for_input8
L_wait_for_input5:
;Temp.c,62 :: 		mils++;
	INFSNZ      wait_for_input_mils_L0+0, 1 
	INCF        wait_for_input_mils_L0+1, 1 
;Temp.c,63 :: 		delay_ms(1);
	MOVLW       4
	MOVWF       R12, 0
	MOVLW       61
	MOVWF       R13, 0
L_wait_for_input9:
	DECFSZ      R13, 1, 1
	BRA         L_wait_for_input9
	DECFSZ      R12, 1, 1
	BRA         L_wait_for_input9
	NOP
	NOP
;Temp.c,64 :: 		}
L_wait_for_input8:
;Temp.c,65 :: 		}
	GOTO        L_wait_for_input3
L_wait_for_input4:
;Temp.c,66 :: 		INTCON.GIE = 1;
	BSF         INTCON+0, 7 
;Temp.c,68 :: 		return 0;
	CLRF        R0 
	CLRF        R1 
;Temp.c,69 :: 		}
L_end_wait_for_input:
	RETURN      0
; end of _wait_for_input

_SendSms:

;Temp.c,75 :: 		void SendSms(char *phonenumber, char *uzenet, char *info)
;Temp.c,78 :: 		UART1_Write_Text("AT\r\n");
	MOVLW       ?lstr2_Temp+0
	MOVWF       FARG_UART1_Write_Text_uart_text+0 
	MOVLW       hi_addr(?lstr2_Temp+0)
	MOVWF       FARG_UART1_Write_Text_uart_text+1 
	CALL        _UART1_Write_Text+0, 0
;Temp.c,80 :: 		delay_ms(500);
	MOVLW       7
	MOVWF       R11, 0
	MOVLW       88
	MOVWF       R12, 0
	MOVLW       89
	MOVWF       R13, 0
L_SendSms10:
	DECFSZ      R13, 1, 1
	BRA         L_SendSms10
	DECFSZ      R12, 1, 1
	BRA         L_SendSms10
	DECFSZ      R11, 1, 1
	BRA         L_SendSms10
	NOP
	NOP
;Temp.c,81 :: 		UART1_Write_Text("AT+CMGF=1\r\n");
	MOVLW       ?lstr3_Temp+0
	MOVWF       FARG_UART1_Write_Text_uart_text+0 
	MOVLW       hi_addr(?lstr3_Temp+0)
	MOVWF       FARG_UART1_Write_Text_uart_text+1 
	CALL        _UART1_Write_Text+0, 0
;Temp.c,82 :: 		delay_ms(500);
	MOVLW       7
	MOVWF       R11, 0
	MOVLW       88
	MOVWF       R12, 0
	MOVLW       89
	MOVWF       R13, 0
L_SendSms11:
	DECFSZ      R13, 1, 1
	BRA         L_SendSms11
	DECFSZ      R12, 1, 1
	BRA         L_SendSms11
	DECFSZ      R11, 1, 1
	BRA         L_SendSms11
	NOP
	NOP
;Temp.c,84 :: 		UART1_Write_Text("AT+CMGS=\"");
	MOVLW       ?lstr4_Temp+0
	MOVWF       FARG_UART1_Write_Text_uart_text+0 
	MOVLW       hi_addr(?lstr4_Temp+0)
	MOVWF       FARG_UART1_Write_Text_uart_text+1 
	CALL        _UART1_Write_Text+0, 0
;Temp.c,85 :: 		UART1_Write_Text(phonenumber);
	MOVF        FARG_SendSms_phonenumber+0, 0 
	MOVWF       FARG_UART1_Write_Text_uart_text+0 
	MOVF        FARG_SendSms_phonenumber+1, 0 
	MOVWF       FARG_UART1_Write_Text_uart_text+1 
	CALL        _UART1_Write_Text+0, 0
;Temp.c,86 :: 		UART1_Write(0x22);
	MOVLW       34
	MOVWF       FARG_UART1_Write_data_+0 
	CALL        _UART1_Write+0, 0
;Temp.c,87 :: 		UART1_Write(0x0D);
	MOVLW       13
	MOVWF       FARG_UART1_Write_data_+0 
	CALL        _UART1_Write+0, 0
;Temp.c,88 :: 		delay_ms(500);
	MOVLW       7
	MOVWF       R11, 0
	MOVLW       88
	MOVWF       R12, 0
	MOVLW       89
	MOVWF       R13, 0
L_SendSms12:
	DECFSZ      R13, 1, 1
	BRA         L_SendSms12
	DECFSZ      R12, 1, 1
	BRA         L_SendSms12
	DECFSZ      R11, 1, 1
	BRA         L_SendSms12
	NOP
	NOP
;Temp.c,89 :: 		UART1_Write_Text(uzenet);
	MOVF        FARG_SendSms_uzenet+0, 0 
	MOVWF       FARG_UART1_Write_Text_uart_text+0 
	MOVF        FARG_SendSms_uzenet+1, 0 
	MOVWF       FARG_UART1_Write_Text_uart_text+1 
	CALL        _UART1_Write_Text+0, 0
;Temp.c,90 :: 		UART1_Write_Text(info);
	MOVF        FARG_SendSms_info+0, 0 
	MOVWF       FARG_UART1_Write_Text_uart_text+0 
	MOVF        FARG_SendSms_info+1, 0 
	MOVWF       FARG_UART1_Write_Text_uart_text+1 
	CALL        _UART1_Write_Text+0, 0
;Temp.c,91 :: 		UART1_Write(26);
	MOVLW       26
	MOVWF       FARG_UART1_Write_data_+0 
	CALL        _UART1_Write+0, 0
;Temp.c,92 :: 		UART1_Write(0x0D);
	MOVLW       13
	MOVWF       FARG_UART1_Write_data_+0 
	CALL        _UART1_Write+0, 0
;Temp.c,93 :: 		delay_ms(6000);
	MOVLW       77
	MOVWF       R11, 0
	MOVLW       25
	MOVWF       R12, 0
	MOVLW       79
	MOVWF       R13, 0
L_SendSms13:
	DECFSZ      R13, 1, 1
	BRA         L_SendSms13
	DECFSZ      R12, 1, 1
	BRA         L_SendSms13
	DECFSZ      R11, 1, 1
	BRA         L_SendSms13
	NOP
	NOP
;Temp.c,96 :: 		}
L_end_SendSms:
	RETURN      0
; end of _SendSms

_InitTimer0:

;Temp.c,101 :: 		void InitTimer0(){
;Temp.c,102 :: 		T0CON         = 0x85;
	MOVLW       133
	MOVWF       T0CON+0 
;Temp.c,103 :: 		TMR0H         = 0x67;
	MOVLW       103
	MOVWF       TMR0H+0 
;Temp.c,104 :: 		TMR0L         = 0x69;
	MOVLW       105
	MOVWF       TMR0L+0 
;Temp.c,105 :: 		GIE_bit         = 1;
	BSF         GIE_bit+0, BitPos(GIE_bit+0) 
;Temp.c,106 :: 		TMR0IE_bit         = 1;
	BSF         TMR0IE_bit+0, BitPos(TMR0IE_bit+0) 
;Temp.c,107 :: 		}
L_end_InitTimer0:
	RETURN      0
; end of _InitTimer0

_Interrupt:

;Temp.c,110 :: 		void Interrupt(){
;Temp.c,112 :: 		if (PIR1.RCIF ) {          // test the interrupt for uart rx
	BTFSS       PIR1+0, 5 
	GOTO        L_Interrupt14
;Temp.c,114 :: 		if (index >= sizeof(interruptStreamBuffer)-2){
	MOVLW       128
	XORWF       _index+1, 0 
	MOVWF       R0 
	MOVLW       128
	SUBWF       R0, 0 
	BTFSS       STATUS+0, 2 
	GOTO        L__Interrupt104
	MOVLW       198
	SUBWF       _index+0, 0 
L__Interrupt104:
	BTFSS       STATUS+0, 0 
	GOTO        L_Interrupt15
;Temp.c,116 :: 		index = 0;
	CLRF        _index+0 
	CLRF        _index+1 
;Temp.c,117 :: 		sms = 1;
	MOVLW       1
	MOVWF       _sms+0 
;Temp.c,118 :: 		InputReaderFlag = 0;
	CLRF        _InputReaderFlag+0 
;Temp.c,119 :: 		}
L_Interrupt15:
;Temp.c,121 :: 		interruptStreamBuffer[index] = UART1_Read();
	MOVLW       _interruptStreamBuffer+0
	ADDWF       _index+0, 0 
	MOVWF       FLOC__Interrupt+0 
	MOVLW       hi_addr(_interruptStreamBuffer+0)
	ADDWFC      _index+1, 0 
	MOVWF       FLOC__Interrupt+1 
	CALL        _UART1_Read+0, 0
	MOVFF       FLOC__Interrupt+0, FSR1
	MOVFF       FLOC__Interrupt+1, FSR1H
	MOVF        R0, 0 
	MOVWF       POSTINC1+0 
;Temp.c,123 :: 		if (interruptStreamBuffer[index] == '\n' ||
	MOVLW       _interruptStreamBuffer+0
	ADDWF       _index+0, 0 
	MOVWF       FSR0 
	MOVLW       hi_addr(_interruptStreamBuffer+0)
	ADDWFC      _index+1, 0 
	MOVWF       FSR0H 
;Temp.c,124 :: 		interruptStreamBuffer[index] == '\0' ||
	MOVF        POSTINC0+0, 0 
	XORLW       10
	BTFSC       STATUS+0, 2 
	GOTO        L__Interrupt91
	MOVLW       _interruptStreamBuffer+0
	ADDWF       _index+0, 0 
	MOVWF       FSR0 
	MOVLW       hi_addr(_interruptStreamBuffer+0)
	ADDWFC      _index+1, 0 
	MOVWF       FSR0H 
	MOVF        POSTINC0+0, 0 
	XORLW       0
	BTFSC       STATUS+0, 2 
	GOTO        L__Interrupt91
;Temp.c,125 :: 		interruptStreamBuffer[index] == '\r' ) {
	MOVLW       _interruptStreamBuffer+0
	ADDWF       _index+0, 0 
	MOVWF       FSR0 
	MOVLW       hi_addr(_interruptStreamBuffer+0)
	ADDWFC      _index+1, 0 
	MOVWF       FSR0H 
	MOVF        POSTINC0+0, 0 
	XORLW       13
	BTFSC       STATUS+0, 2 
	GOTO        L__Interrupt91
	GOTO        L_Interrupt18
L__Interrupt91:
;Temp.c,127 :: 		InputReaderFlag = TRUE;
	MOVLW       1
	MOVWF       _InputReaderFlag+0 
;Temp.c,128 :: 		interruptStreamBuffer[index+1] = '\0';
	MOVLW       1
	ADDWF       _index+0, 0 
	MOVWF       R0 
	MOVLW       0
	ADDWFC      _index+1, 0 
	MOVWF       R1 
	MOVLW       _interruptStreamBuffer+0
	ADDWF       R0, 0 
	MOVWF       FSR1 
	MOVLW       hi_addr(_interruptStreamBuffer+0)
	ADDWFC      R1, 0 
	MOVWF       FSR1H 
	CLRF        POSTINC1+0 
;Temp.c,129 :: 		}
L_Interrupt18:
;Temp.c,131 :: 		index++;
	INFSNZ      _index+0, 1 
	INCF        _index+1, 1 
;Temp.c,132 :: 		}
L_Interrupt14:
;Temp.c,134 :: 		if (TMR0IF_bit){
	BTFSS       TMR0IF_bit+0, BitPos(TMR0IF_bit+0) 
	GOTO        L_Interrupt19
;Temp.c,135 :: 		TMR0IF_bit = 0;
	BCF         TMR0IF_bit+0, BitPos(TMR0IF_bit+0) 
;Temp.c,136 :: 		TMR0H         = 0x67;
	MOVLW       103
	MOVWF       TMR0H+0 
;Temp.c,137 :: 		TMR0L         = 0x69;
	MOVLW       105
	MOVWF       TMR0L+0 
;Temp.c,139 :: 		if (secondCounter <= 400){
	MOVLW       128
	XORLW       1
	MOVWF       R0 
	MOVLW       128
	XORWF       _secondCounter+1, 0 
	SUBWF       R0, 0 
	BTFSS       STATUS+0, 2 
	GOTO        L__Interrupt105
	MOVF        _secondCounter+0, 0 
	SUBLW       144
L__Interrupt105:
	BTFSS       STATUS+0, 0 
	GOTO        L_Interrupt20
;Temp.c,140 :: 		secondCounter++;
	INFSNZ      _secondCounter+0, 1 
	INCF        _secondCounter+1, 1 
;Temp.c,141 :: 		}
L_Interrupt20:
;Temp.c,142 :: 		if (sec <= 3600){
	MOVLW       128
	XORLW       14
	MOVWF       R0 
	MOVLW       128
	XORWF       _sec+1, 0 
	SUBWF       R0, 0 
	BTFSS       STATUS+0, 2 
	GOTO        L__Interrupt106
	MOVF        _sec+0, 0 
	SUBLW       16
L__Interrupt106:
	BTFSS       STATUS+0, 0 
	GOTO        L_Interrupt21
;Temp.c,143 :: 		sec++;
	INFSNZ      _sec+0, 1 
	INCF        _sec+1, 1 
;Temp.c,144 :: 		}
L_Interrupt21:
;Temp.c,145 :: 		}
L_Interrupt19:
;Temp.c,147 :: 		}
L_end_Interrupt:
L__Interrupt103:
	RETFIE      1
; end of _Interrupt

_getSmsMessage:

;Temp.c,154 :: 		char *getSmsMessage(){
;Temp.c,158 :: 		p1 = strstr(interruptStreamBuffer,"UNREAD");
	MOVLW       _interruptStreamBuffer+0
	MOVWF       FARG_strstr_s1+0 
	MOVLW       hi_addr(_interruptStreamBuffer+0)
	MOVWF       FARG_strstr_s1+1 
	MOVLW       ?lstr5_Temp+0
	MOVWF       FARG_strstr_s2+0 
	MOVLW       hi_addr(?lstr5_Temp+0)
	MOVWF       FARG_strstr_s2+1 
	CALL        _strstr+0, 0
;Temp.c,159 :: 		p1 += 6;
	MOVLW       6
	ADDWF       R0, 0 
	MOVWF       FARG_strtok_s1+0 
	MOVLW       0
	ADDWFC      R1, 0 
	MOVWF       FARG_strtok_s1+1 
;Temp.c,161 :: 		p2 = strtok(p1,"\",\"");
	MOVLW       ?lstr6_Temp+0
	MOVWF       FARG_strtok_s2+0 
	MOVLW       hi_addr(?lstr6_Temp+0)
	MOVWF       FARG_strtok_s2+1 
	CALL        _strtok+0, 0
;Temp.c,164 :: 		strcpy(phoneBuffer, p2);
	MOVLW       _phoneBuffer+0
	MOVWF       FARG_strcpy_to+0 
	MOVLW       hi_addr(_phoneBuffer+0)
	MOVWF       FARG_strcpy_to+1 
	MOVF        R0, 0 
	MOVWF       FARG_strcpy_from+0 
	MOVF        R1, 0 
	MOVWF       FARG_strcpy_from+1 
	CALL        _strcpy+0, 0
;Temp.c,166 :: 		p2 = strtok(0,"\n");
	CLRF        FARG_strtok_s1+0 
	CLRF        FARG_strtok_s1+1 
	MOVLW       ?lstr7_Temp+0
	MOVWF       FARG_strtok_s2+0 
	MOVLW       hi_addr(?lstr7_Temp+0)
	MOVWF       FARG_strtok_s2+1 
	CALL        _strtok+0, 0
;Temp.c,167 :: 		p2 = strtok(0,"\r");
	CLRF        FARG_strtok_s1+0 
	CLRF        FARG_strtok_s1+1 
	MOVLW       ?lstr8_Temp+0
	MOVWF       FARG_strtok_s2+0 
	MOVLW       hi_addr(?lstr8_Temp+0)
	MOVWF       FARG_strtok_s2+1 
	CALL        _strtok+0, 0
;Temp.c,169 :: 		return p2;
;Temp.c,170 :: 		}
L_end_getSmsMessage:
	RETURN      0
; end of _getSmsMessage

_SmsCommands:

;Temp.c,173 :: 		void SmsCommands(){
;Temp.c,177 :: 		if (strstr(interruptStreamBuffer,"UNREAD") != 0 )
	MOVLW       _interruptStreamBuffer+0
	MOVWF       FARG_strstr_s1+0 
	MOVLW       hi_addr(_interruptStreamBuffer+0)
	MOVWF       FARG_strstr_s1+1 
	MOVLW       ?lstr9_Temp+0
	MOVWF       FARG_strstr_s2+0 
	MOVLW       hi_addr(?lstr9_Temp+0)
	MOVWF       FARG_strstr_s2+1 
	CALL        _strstr+0, 0
	MOVLW       0
	XORWF       R1, 0 
	BTFSS       STATUS+0, 2 
	GOTO        L__SmsCommands109
	MOVLW       0
	XORWF       R0, 0 
L__SmsCommands109:
	BTFSC       STATUS+0, 2 
	GOTO        L_SmsCommands22
;Temp.c,180 :: 		delay_ms(500);
	MOVLW       7
	MOVWF       R11, 0
	MOVLW       88
	MOVWF       R12, 0
	MOVLW       89
	MOVWF       R13, 0
L_SmsCommands23:
	DECFSZ      R13, 1, 1
	BRA         L_SmsCommands23
	DECFSZ      R12, 1, 1
	BRA         L_SmsCommands23
	DECFSZ      R11, 1, 1
	BRA         L_SmsCommands23
	NOP
	NOP
;Temp.c,184 :: 		sms = 1;
	MOVLW       1
	MOVWF       _sms+0 
;Temp.c,185 :: 		isDataProcessed = FALSE;
	CLRF        _isDataProcessed+0 
;Temp.c,190 :: 		p = getSmsMessage();
	CALL        _getSmsMessage+0, 0
	MOVF        R0, 0 
	MOVWF       SmsCommands_p_L1+0 
	MOVF        R1, 0 
	MOVWF       SmsCommands_p_L1+1 
;Temp.c,193 :: 		delay_ms(300);
	MOVLW       4
	MOVWF       R11, 0
	MOVLW       207
	MOVWF       R12, 0
	MOVLW       1
	MOVWF       R13, 0
L_SmsCommands24:
	DECFSZ      R13, 1, 1
	BRA         L_SmsCommands24
	DECFSZ      R12, 1, 1
	BRA         L_SmsCommands24
	DECFSZ      R11, 1, 1
	BRA         L_SmsCommands24
	NOP
	NOP
;Temp.c,197 :: 		if (strstr(p,"ADMIN") != 0)
	MOVF        SmsCommands_p_L1+0, 0 
	MOVWF       FARG_strstr_s1+0 
	MOVF        SmsCommands_p_L1+1, 0 
	MOVWF       FARG_strstr_s1+1 
	MOVLW       ?lstr10_Temp+0
	MOVWF       FARG_strstr_s2+0 
	MOVLW       hi_addr(?lstr10_Temp+0)
	MOVWF       FARG_strstr_s2+1 
	CALL        _strstr+0, 0
	MOVLW       0
	XORWF       R1, 0 
	BTFSS       STATUS+0, 2 
	GOTO        L__SmsCommands110
	MOVLW       0
	XORWF       R0, 0 
L__SmsCommands110:
	BTFSC       STATUS+0, 2 
	GOTO        L_SmsCommands25
;Temp.c,200 :: 		INTCON.GIE = 0;
	BCF         INTCON+0, 7 
;Temp.c,202 :: 		delay_ms(100);
	MOVLW       2
	MOVWF       R11, 0
	MOVLW       69
	MOVWF       R12, 0
	MOVLW       169
	MOVWF       R13, 0
L_SmsCommands26:
	DECFSZ      R13, 1, 1
	BRA         L_SmsCommands26
	DECFSZ      R12, 1, 1
	BRA         L_SmsCommands26
	DECFSZ      R11, 1, 1
	BRA         L_SmsCommands26
	NOP
	NOP
;Temp.c,203 :: 		logicVar = FALSE;
	CLRF        _logicVar+0 
;Temp.c,205 :: 		if (strcmp(kezelo,phoneBuffer) == 0)
	MOVLW       _kezelo+0
	MOVWF       FARG_strcmp_s1+0 
	MOVLW       hi_addr(_kezelo+0)
	MOVWF       FARG_strcmp_s1+1 
	MOVLW       _phoneBuffer+0
	MOVWF       FARG_strcmp_s2+0 
	MOVLW       hi_addr(_phoneBuffer+0)
	MOVWF       FARG_strcmp_s2+1 
	CALL        _strcmp+0, 0
	MOVLW       0
	XORWF       R1, 0 
	BTFSS       STATUS+0, 2 
	GOTO        L__SmsCommands111
	MOVLW       0
	XORWF       R0, 0 
L__SmsCommands111:
	BTFSS       STATUS+0, 2 
	GOTO        L_SmsCommands27
;Temp.c,207 :: 		SendSms(kezelo,"Hiba: Maga a felhasznalo", "");
	MOVLW       _kezelo+0
	MOVWF       FARG_SendSms_phonenumber+0 
	MOVLW       hi_addr(_kezelo+0)
	MOVWF       FARG_SendSms_phonenumber+1 
	MOVLW       ?lstr11_Temp+0
	MOVWF       FARG_SendSms_uzenet+0 
	MOVLW       hi_addr(?lstr11_Temp+0)
	MOVWF       FARG_SendSms_uzenet+1 
	MOVLW       ?lstr12_Temp+0
	MOVWF       FARG_SendSms_info+0 
	MOVLW       hi_addr(?lstr12_Temp+0)
	MOVWF       FARG_SendSms_info+1 
	CALL        _SendSms+0, 0
;Temp.c,208 :: 		logicVar = TRUE;
	MOVLW       1
	MOVWF       _logicVar+0 
;Temp.c,209 :: 		}
L_SmsCommands27:
;Temp.c,211 :: 		if (logicVar == FALSE)
	MOVF        _logicVar+0, 0 
	XORLW       0
	BTFSS       STATUS+0, 2 
	GOTO        L_SmsCommands28
;Temp.c,215 :: 		SendSms(kezelo,"Uj felhasznalo: ", phoneBuffer);
	MOVLW       _kezelo+0
	MOVWF       FARG_SendSms_phonenumber+0 
	MOVLW       hi_addr(_kezelo+0)
	MOVWF       FARG_SendSms_phonenumber+1 
	MOVLW       ?lstr13_Temp+0
	MOVWF       FARG_SendSms_uzenet+0 
	MOVLW       hi_addr(?lstr13_Temp+0)
	MOVWF       FARG_SendSms_uzenet+1 
	MOVLW       _phoneBuffer+0
	MOVWF       FARG_SendSms_info+0 
	MOVLW       hi_addr(_phoneBuffer+0)
	MOVWF       FARG_SendSms_info+1 
	CALL        _SendSms+0, 0
;Temp.c,217 :: 		SendSms(phoneBuffer,"Regi felhasznalo: ", kezelo);
	MOVLW       _phoneBuffer+0
	MOVWF       FARG_SendSms_phonenumber+0 
	MOVLW       hi_addr(_phoneBuffer+0)
	MOVWF       FARG_SendSms_phonenumber+1 
	MOVLW       ?lstr14_Temp+0
	MOVWF       FARG_SendSms_uzenet+0 
	MOVLW       hi_addr(?lstr14_Temp+0)
	MOVWF       FARG_SendSms_uzenet+1 
	MOVLW       _kezelo+0
	MOVWF       FARG_SendSms_info+0 
	MOVLW       hi_addr(_kezelo+0)
	MOVWF       FARG_SendSms_info+1 
	CALL        _SendSms+0, 0
;Temp.c,219 :: 		strcpy(kezelo,phoneBuffer);
	MOVLW       _kezelo+0
	MOVWF       FARG_strcpy_to+0 
	MOVLW       hi_addr(_kezelo+0)
	MOVWF       FARG_strcpy_to+1 
	MOVLW       _phoneBuffer+0
	MOVWF       FARG_strcpy_from+0 
	MOVLW       hi_addr(_phoneBuffer+0)
	MOVWF       FARG_strcpy_from+1 
	CALL        _strcpy+0, 0
;Temp.c,223 :: 		for (i=0;i<12;i++){
	CLRF        SmsCommands_i_L3+0 
	CLRF        SmsCommands_i_L3+1 
L_SmsCommands29:
	MOVLW       128
	XORWF       SmsCommands_i_L3+1, 0 
	MOVWF       R0 
	MOVLW       128
	SUBWF       R0, 0 
	BTFSS       STATUS+0, 2 
	GOTO        L__SmsCommands112
	MOVLW       12
	SUBWF       SmsCommands_i_L3+0, 0 
L__SmsCommands112:
	BTFSC       STATUS+0, 0 
	GOTO        L_SmsCommands30
;Temp.c,225 :: 		EEPROM_Write(i+4,kezelo[i]);
	MOVLW       4
	ADDWF       SmsCommands_i_L3+0, 0 
	MOVWF       FARG_EEPROM_Write_address+0 
	MOVLW       0
	ADDWFC      SmsCommands_i_L3+1, 0 
	MOVWF       FARG_EEPROM_Write_address+1 
	MOVLW       _kezelo+0
	ADDWF       SmsCommands_i_L3+0, 0 
	MOVWF       FSR0 
	MOVLW       hi_addr(_kezelo+0)
	ADDWFC      SmsCommands_i_L3+1, 0 
	MOVWF       FSR0H 
	MOVF        POSTINC0+0, 0 
	MOVWF       FARG_EEPROM_Write_data_+0 
	CALL        _EEPROM_Write+0, 0
;Temp.c,226 :: 		delay_ms(20);
	MOVLW       65
	MOVWF       R12, 0
	MOVLW       238
	MOVWF       R13, 0
L_SmsCommands32:
	DECFSZ      R13, 1, 1
	BRA         L_SmsCommands32
	DECFSZ      R12, 1, 1
	BRA         L_SmsCommands32
	NOP
;Temp.c,223 :: 		for (i=0;i<12;i++){
	INFSNZ      SmsCommands_i_L3+0, 1 
	INCF        SmsCommands_i_L3+1, 1 
;Temp.c,227 :: 		}
	GOTO        L_SmsCommands29
L_SmsCommands30:
;Temp.c,230 :: 		}
L_SmsCommands28:
;Temp.c,231 :: 		memset(interruptStreamBuffer,0,sizeof(interruptStreamBuffer)-1);
	MOVLW       _interruptStreamBuffer+0
	MOVWF       FARG_memset_p1+0 
	MOVLW       hi_addr(_interruptStreamBuffer+0)
	MOVWF       FARG_memset_p1+1 
	CLRF        FARG_memset_character+0 
	MOVLW       199
	MOVWF       FARG_memset_n+0 
	MOVLW       0
	MOVWF       FARG_memset_n+1 
	CALL        _memset+0, 0
;Temp.c,232 :: 		isDataProcessed = TRUE;
	MOVLW       1
	MOVWF       _isDataProcessed+0 
;Temp.c,233 :: 		INTCON.GIE = 1;
	BSF         INTCON+0, 7 
;Temp.c,235 :: 		}
L_SmsCommands25:
;Temp.c,238 :: 		if ((strstr(kezelo,phoneBuffer) != 0) && isDataProcessed == FALSE)
	MOVLW       _kezelo+0
	MOVWF       FARG_strstr_s1+0 
	MOVLW       hi_addr(_kezelo+0)
	MOVWF       FARG_strstr_s1+1 
	MOVLW       _phoneBuffer+0
	MOVWF       FARG_strstr_s2+0 
	MOVLW       hi_addr(_phoneBuffer+0)
	MOVWF       FARG_strstr_s2+1 
	CALL        _strstr+0, 0
	MOVLW       0
	XORWF       R1, 0 
	BTFSS       STATUS+0, 2 
	GOTO        L__SmsCommands113
	MOVLW       0
	XORWF       R0, 0 
L__SmsCommands113:
	BTFSC       STATUS+0, 2 
	GOTO        L_SmsCommands35
	MOVF        _isDataProcessed+0, 0 
	XORLW       0
	BTFSS       STATUS+0, 2 
	GOTO        L_SmsCommands35
L__SmsCommands92:
;Temp.c,241 :: 		strcpy(output," ");
	MOVLW       _output+0
	MOVWF       FARG_strcpy_to+0 
	MOVLW       hi_addr(_output+0)
	MOVWF       FARG_strcpy_to+1 
	MOVLW       ?lstr15_Temp+0
	MOVWF       FARG_strcpy_from+0 
	MOVLW       hi_addr(?lstr15_Temp+0)
	MOVWF       FARG_strcpy_from+1 
	CALL        _strcpy+0, 0
;Temp.c,242 :: 		strcpy(msg," ");
	MOVLW       _msg+0
	MOVWF       FARG_strcpy_to+0 
	MOVLW       hi_addr(_msg+0)
	MOVWF       FARG_strcpy_to+1 
	MOVLW       ?lstr16_Temp+0
	MOVWF       FARG_strcpy_from+0 
	MOVLW       hi_addr(?lstr16_Temp+0)
	MOVWF       FARG_strcpy_from+1 
	CALL        _strcpy+0, 0
;Temp.c,245 :: 		if (strstr(p,"INFO") != 0 )
	MOVF        SmsCommands_p_L1+0, 0 
	MOVWF       FARG_strstr_s1+0 
	MOVF        SmsCommands_p_L1+1, 0 
	MOVWF       FARG_strstr_s1+1 
	MOVLW       ?lstr17_Temp+0
	MOVWF       FARG_strstr_s2+0 
	MOVLW       hi_addr(?lstr17_Temp+0)
	MOVWF       FARG_strstr_s2+1 
	CALL        _strstr+0, 0
	MOVLW       0
	XORWF       R1, 0 
	BTFSS       STATUS+0, 2 
	GOTO        L__SmsCommands114
	MOVLW       0
	XORWF       R0, 0 
L__SmsCommands114:
	BTFSC       STATUS+0, 2 
	GOTO        L_SmsCommands36
;Temp.c,247 :: 		sms++;
	INCF        _sms+0, 1 
;Temp.c,249 :: 		if (isHeaterActive == TRUE)
	MOVF        _isHeaterActive+0, 0 
	XORLW       1
	BTFSS       STATUS+0, 2 
	GOTO        L_SmsCommands37
;Temp.c,250 :: 		if (heaterFlag == 1){
	MOVF        _heaterFlag+0, 0 
	XORLW       1
	BTFSS       STATUS+0, 2 
	GOTO        L_SmsCommands38
;Temp.c,251 :: 		strcpy(output,"BEKAPCSOLVA");
	MOVLW       _output+0
	MOVWF       FARG_strcpy_to+0 
	MOVLW       hi_addr(_output+0)
	MOVWF       FARG_strcpy_to+1 
	MOVLW       ?lstr18_Temp+0
	MOVWF       FARG_strcpy_from+0 
	MOVLW       hi_addr(?lstr18_Temp+0)
	MOVWF       FARG_strcpy_from+1 
	CALL        _strcpy+0, 0
;Temp.c,252 :: 		} else {
	GOTO        L_SmsCommands39
L_SmsCommands38:
;Temp.c,253 :: 		strcpy(output,"LEKAPCSOLVA");
	MOVLW       _output+0
	MOVWF       FARG_strcpy_to+0 
	MOVLW       hi_addr(_output+0)
	MOVWF       FARG_strcpy_to+1 
	MOVLW       ?lstr19_Temp+0
	MOVWF       FARG_strcpy_from+0 
	MOVLW       hi_addr(?lstr19_Temp+0)
	MOVWF       FARG_strcpy_from+1 
	CALL        _strcpy+0, 0
;Temp.c,254 :: 		}
L_SmsCommands39:
	GOTO        L_SmsCommands40
L_SmsCommands37:
;Temp.c,256 :: 		strcpy(output,"LEKAPCSOLVA");
	MOVLW       _output+0
	MOVWF       FARG_strcpy_to+0 
	MOVLW       hi_addr(_output+0)
	MOVWF       FARG_strcpy_to+1 
	MOVLW       ?lstr20_Temp+0
	MOVWF       FARG_strcpy_from+0 
	MOVLW       hi_addr(?lstr20_Temp+0)
	MOVWF       FARG_strcpy_from+1 
	CALL        _strcpy+0, 0
L_SmsCommands40:
;Temp.c,258 :: 		SendSms(kezelo,output,"");
	MOVLW       _kezelo+0
	MOVWF       FARG_SendSms_phonenumber+0 
	MOVLW       hi_addr(_kezelo+0)
	MOVWF       FARG_SendSms_phonenumber+1 
	MOVLW       _output+0
	MOVWF       FARG_SendSms_uzenet+0 
	MOVLW       hi_addr(_output+0)
	MOVWF       FARG_SendSms_uzenet+1 
	MOVLW       ?lstr21_Temp+0
	MOVWF       FARG_SendSms_info+0 
	MOVLW       hi_addr(?lstr21_Temp+0)
	MOVWF       FARG_SendSms_info+1 
	CALL        _SendSms+0, 0
;Temp.c,260 :: 		isDataProcessed = TRUE;
	MOVLW       1
	MOVWF       _isDataProcessed+0 
;Temp.c,261 :: 		}
L_SmsCommands36:
;Temp.c,264 :: 		}
L_SmsCommands35:
;Temp.c,266 :: 		delay_ms(2000);
	MOVLW       26
	MOVWF       R11, 0
	MOVLW       94
	MOVWF       R12, 0
	MOVLW       110
	MOVWF       R13, 0
L_SmsCommands41:
	DECFSZ      R13, 1, 1
	BRA         L_SmsCommands41
	DECFSZ      R12, 1, 1
	BRA         L_SmsCommands41
	DECFSZ      R11, 1, 1
	BRA         L_SmsCommands41
	NOP
;Temp.c,268 :: 		memset(interruptStreamBuffer,0,sizeof(interruptStreamBuffer)-1);
	MOVLW       _interruptStreamBuffer+0
	MOVWF       FARG_memset_p1+0 
	MOVLW       hi_addr(_interruptStreamBuffer+0)
	MOVWF       FARG_memset_p1+1 
	CLRF        FARG_memset_character+0 
	MOVLW       199
	MOVWF       FARG_memset_n+0 
	MOVLW       0
	MOVWF       FARG_memset_n+1 
	CALL        _memset+0, 0
;Temp.c,269 :: 		memset(output,0,sizeof(output)-1);
	MOVLW       _output+0
	MOVWF       FARG_memset_p1+0 
	MOVLW       hi_addr(_output+0)
	MOVWF       FARG_memset_p1+1 
	CLRF        FARG_memset_character+0 
	MOVLW       59
	MOVWF       FARG_memset_n+0 
	MOVLW       0
	MOVWF       FARG_memset_n+1 
	CALL        _memset+0, 0
;Temp.c,270 :: 		}
L_SmsCommands22:
;Temp.c,271 :: 		}
L_end_SmsCommands:
	RETURN      0
; end of _SmsCommands

_SmsIncome:

;Temp.c,277 :: 		void SmsIncome()
;Temp.c,280 :: 		if (strstr(interruptStreamBuffer,"MTI:") != 0)
	MOVLW       _interruptStreamBuffer+0
	MOVWF       FARG_strstr_s1+0 
	MOVLW       hi_addr(_interruptStreamBuffer+0)
	MOVWF       FARG_strstr_s1+1 
	MOVLW       ?lstr22_Temp+0
	MOVWF       FARG_strstr_s2+0 
	MOVLW       hi_addr(?lstr22_Temp+0)
	MOVWF       FARG_strstr_s2+1 
	CALL        _strstr+0, 0
	MOVLW       0
	XORWF       R1, 0 
	BTFSS       STATUS+0, 2 
	GOTO        L__SmsIncome116
	MOVLW       0
	XORWF       R0, 0 
L__SmsIncome116:
	BTFSC       STATUS+0, 2 
	GOTO        L_SmsIncome42
;Temp.c,282 :: 		INTCON.GIE = 0;
	BCF         INTCON+0, 7 
;Temp.c,283 :: 		delay_ms(1500);
	MOVLW       20
	MOVWF       R11, 0
	MOVLW       7
	MOVWF       R12, 0
	MOVLW       17
	MOVWF       R13, 0
L_SmsIncome43:
	DECFSZ      R13, 1, 1
	BRA         L_SmsIncome43
	DECFSZ      R12, 1, 1
	BRA         L_SmsIncome43
	DECFSZ      R11, 1, 1
	BRA         L_SmsIncome43
	NOP
	NOP
;Temp.c,284 :: 		memset(interruptStreamBuffer,0,sizeof(interruptStreamBuffer)-1);
	MOVLW       _interruptStreamBuffer+0
	MOVWF       FARG_memset_p1+0 
	MOVLW       hi_addr(_interruptStreamBuffer+0)
	MOVWF       FARG_memset_p1+1 
	CLRF        FARG_memset_character+0 
	MOVLW       199
	MOVWF       FARG_memset_n+0 
	MOVLW       0
	MOVWF       FARG_memset_n+1 
	CALL        _memset+0, 0
;Temp.c,286 :: 		index=0;
	CLRF        _index+0 
	CLRF        _index+1 
;Temp.c,287 :: 		INTCON.GIE = 1;
	BSF         INTCON+0, 7 
;Temp.c,289 :: 		UART1_Write_Text("AT+CMGR=1\r\n");
	MOVLW       ?lstr23_Temp+0
	MOVWF       FARG_UART1_Write_Text_uart_text+0 
	MOVLW       hi_addr(?lstr23_Temp+0)
	MOVWF       FARG_UART1_Write_Text_uart_text+1 
	CALL        _UART1_Write_Text+0, 0
;Temp.c,292 :: 		}
L_SmsIncome42:
;Temp.c,295 :: 		}
L_end_SmsIncome:
	RETURN      0
; end of _SmsIncome

_DelSms:

;Temp.c,297 :: 		void DelSms()
;Temp.c,300 :: 		if (sms >=1 )
	MOVLW       1
	SUBWF       _sms+0, 0 
	BTFSS       STATUS+0, 0 
	GOTO        L_DelSms44
;Temp.c,302 :: 		INTCON.GIE = 0;
	BCF         INTCON+0, 7 
;Temp.c,303 :: 		UART1_Write_Text("AT\r\n");
	MOVLW       ?lstr24_Temp+0
	MOVWF       FARG_UART1_Write_Text_uart_text+0 
	MOVLW       hi_addr(?lstr24_Temp+0)
	MOVWF       FARG_UART1_Write_Text_uart_text+1 
	CALL        _UART1_Write_Text+0, 0
;Temp.c,304 :: 		delay_ms(500);
	MOVLW       7
	MOVWF       R11, 0
	MOVLW       88
	MOVWF       R12, 0
	MOVLW       89
	MOVWF       R13, 0
L_DelSms45:
	DECFSZ      R13, 1, 1
	BRA         L_DelSms45
	DECFSZ      R12, 1, 1
	BRA         L_DelSms45
	DECFSZ      R11, 1, 1
	BRA         L_DelSms45
	NOP
	NOP
;Temp.c,305 :: 		UART1_Write_Text("AT+CMGDA=\"DEL ALL\"\r\n");
	MOVLW       ?lstr25_Temp+0
	MOVWF       FARG_UART1_Write_Text_uart_text+0 
	MOVLW       hi_addr(?lstr25_Temp+0)
	MOVWF       FARG_UART1_Write_Text_uart_text+1 
	CALL        _UART1_Write_Text+0, 0
;Temp.c,306 :: 		delay_ms(500);
	MOVLW       7
	MOVWF       R11, 0
	MOVLW       88
	MOVWF       R12, 0
	MOVLW       89
	MOVWF       R13, 0
L_DelSms46:
	DECFSZ      R13, 1, 1
	BRA         L_DelSms46
	DECFSZ      R12, 1, 1
	BRA         L_DelSms46
	DECFSZ      R11, 1, 1
	BRA         L_DelSms46
	NOP
	NOP
;Temp.c,307 :: 		sms = 0;
	CLRF        _sms+0 
;Temp.c,308 :: 		memset(interruptStreamBuffer,0,sizeof(interruptStreamBuffer)-1);
	MOVLW       _interruptStreamBuffer+0
	MOVWF       FARG_memset_p1+0 
	MOVLW       hi_addr(_interruptStreamBuffer+0)
	MOVWF       FARG_memset_p1+1 
	CLRF        FARG_memset_character+0 
	MOVLW       199
	MOVWF       FARG_memset_n+0 
	MOVLW       0
	MOVWF       FARG_memset_n+1 
	CALL        _memset+0, 0
;Temp.c,309 :: 		INTCON.GIE = 1;
	BSF         INTCON+0, 7 
;Temp.c,310 :: 		}
L_DelSms44:
;Temp.c,312 :: 		}
L_end_DelSms:
	RETURN      0
; end of _DelSms

_IntSetup:

;Temp.c,317 :: 		void IntSetup()
;Temp.c,319 :: 		int i=0;
	CLRF        IntSetup_i_L0+0 
	CLRF        IntSetup_i_L0+1 
;Temp.c,321 :: 		TRISB = 0b00011000;
	MOVLW       24
	MOVWF       TRISB+0 
;Temp.c,322 :: 		TRISC = 0b00000000;
	CLRF        TRISC+0 
;Temp.c,324 :: 		PORTB = 0b00000000;
	CLRF        PORTB+0 
;Temp.c,325 :: 		PORTC = 0b00000000;
	CLRF        PORTC+0 
;Temp.c,328 :: 		ADCON0 = 0b00000000;
	CLRF        ADCON0+0 
;Temp.c,329 :: 		ADCON1 = 0b00000000;
	CLRF        ADCON1+0 
;Temp.c,332 :: 		delay_ms(500);
	MOVLW       7
	MOVWF       R11, 0
	MOVLW       88
	MOVWF       R12, 0
	MOVLW       89
	MOVWF       R13, 0
L_IntSetup47:
	DECFSZ      R13, 1, 1
	BRA         L_IntSetup47
	DECFSZ      R12, 1, 1
	BRA         L_IntSetup47
	DECFSZ      R11, 1, 1
	BRA         L_IntSetup47
	NOP
	NOP
;Temp.c,333 :: 		UART1_Init(9600);
	MOVLW       64
	MOVWF       SPBRG+0 
	BSF         TXSTA+0, 2, 0
	CALL        _UART1_Init+0, 0
;Temp.c,335 :: 		INTCON.GIE = 1;
	BSF         INTCON+0, 7 
;Temp.c,336 :: 		INTCON.PEIE = 1;
	BSF         INTCON+0, 6 
;Temp.c,337 :: 		PIE1.RCIE = 1;
	BSF         PIE1+0, 5 
;Temp.c,339 :: 		InitTimer0();
	CALL        _InitTimer0+0, 0
;Temp.c,342 :: 		memset(interruptStreamBuffer,0,sizeof(interruptStreamBuffer)-1);
	MOVLW       _interruptStreamBuffer+0
	MOVWF       FARG_memset_p1+0 
	MOVLW       hi_addr(_interruptStreamBuffer+0)
	MOVWF       FARG_memset_p1+1 
	CLRF        FARG_memset_character+0 
	MOVLW       199
	MOVWF       FARG_memset_n+0 
	MOVLW       0
	MOVWF       FARG_memset_n+1 
	CALL        _memset+0, 0
;Temp.c,343 :: 		UART1_Write_Text("AT\r\n");
	MOVLW       ?lstr26_Temp+0
	MOVWF       FARG_UART1_Write_Text_uart_text+0 
	MOVLW       hi_addr(?lstr26_Temp+0)
	MOVWF       FARG_UART1_Write_Text_uart_text+1 
	CALL        _UART1_Write_Text+0, 0
;Temp.c,344 :: 		delay_ms(500);
	MOVLW       7
	MOVWF       R11, 0
	MOVLW       88
	MOVWF       R12, 0
	MOVLW       89
	MOVWF       R13, 0
L_IntSetup48:
	DECFSZ      R13, 1, 1
	BRA         L_IntSetup48
	DECFSZ      R12, 1, 1
	BRA         L_IntSetup48
	DECFSZ      R11, 1, 1
	BRA         L_IntSetup48
	NOP
	NOP
;Temp.c,346 :: 		if (strstr(interruptStreamBuffer,"OK") == 0){
	MOVLW       _interruptStreamBuffer+0
	MOVWF       FARG_strstr_s1+0 
	MOVLW       hi_addr(_interruptStreamBuffer+0)
	MOVWF       FARG_strstr_s1+1 
	MOVLW       ?lstr27_Temp+0
	MOVWF       FARG_strstr_s2+0 
	MOVLW       hi_addr(?lstr27_Temp+0)
	MOVWF       FARG_strstr_s2+1 
	CALL        _strstr+0, 0
	MOVLW       0
	XORWF       R1, 0 
	BTFSS       STATUS+0, 2 
	GOTO        L__IntSetup119
	MOVLW       0
	XORWF       R0, 0 
L__IntSetup119:
	BTFSS       STATUS+0, 2 
	GOTO        L_IntSetup49
;Temp.c,347 :: 		PWRKEY = 1;
	BSF         PORTC+0, 2 
;Temp.c,348 :: 		delay_ms(1000);
	MOVLW       13
	MOVWF       R11, 0
	MOVLW       175
	MOVWF       R12, 0
	MOVLW       182
	MOVWF       R13, 0
L_IntSetup50:
	DECFSZ      R13, 1, 1
	BRA         L_IntSetup50
	DECFSZ      R12, 1, 1
	BRA         L_IntSetup50
	DECFSZ      R11, 1, 1
	BRA         L_IntSetup50
	NOP
;Temp.c,349 :: 		PWRKEY = 0;
	BCF         PORTC+0, 2 
;Temp.c,350 :: 		delay_ms(4000);
	MOVLW       51
	MOVWF       R11, 0
	MOVLW       187
	MOVWF       R12, 0
	MOVLW       223
	MOVWF       R13, 0
L_IntSetup51:
	DECFSZ      R13, 1, 1
	BRA         L_IntSetup51
	DECFSZ      R12, 1, 1
	BRA         L_IntSetup51
	DECFSZ      R11, 1, 1
	BRA         L_IntSetup51
	NOP
	NOP
;Temp.c,351 :: 		}
L_IntSetup49:
;Temp.c,357 :: 		INTCON.GIE = 0;
	BCF         INTCON+0, 7 
;Temp.c,359 :: 		for (i=0;i<12;i++){
	CLRF        IntSetup_i_L0+0 
	CLRF        IntSetup_i_L0+1 
L_IntSetup52:
	MOVLW       128
	XORWF       IntSetup_i_L0+1, 0 
	MOVWF       R0 
	MOVLW       128
	SUBWF       R0, 0 
	BTFSS       STATUS+0, 2 
	GOTO        L__IntSetup120
	MOVLW       12
	SUBWF       IntSetup_i_L0+0, 0 
L__IntSetup120:
	BTFSC       STATUS+0, 0 
	GOTO        L_IntSetup53
;Temp.c,360 :: 		kezelo[i] = EEPROM_Read(i+4);
	MOVLW       _kezelo+0
	ADDWF       IntSetup_i_L0+0, 0 
	MOVWF       FLOC__IntSetup+0 
	MOVLW       hi_addr(_kezelo+0)
	ADDWFC      IntSetup_i_L0+1, 0 
	MOVWF       FLOC__IntSetup+1 
	MOVLW       4
	ADDWF       IntSetup_i_L0+0, 0 
	MOVWF       FARG_EEPROM_Read_address+0 
	MOVLW       0
	ADDWFC      IntSetup_i_L0+1, 0 
	MOVWF       FARG_EEPROM_Read_address+1 
	CALL        _EEPROM_Read+0, 0
	MOVFF       FLOC__IntSetup+0, FSR1
	MOVFF       FLOC__IntSetup+1, FSR1H
	MOVF        R0, 0 
	MOVWF       POSTINC1+0 
;Temp.c,361 :: 		delay_ms(20);
	MOVLW       65
	MOVWF       R12, 0
	MOVLW       238
	MOVWF       R13, 0
L_IntSetup55:
	DECFSZ      R13, 1, 1
	BRA         L_IntSetup55
	DECFSZ      R12, 1, 1
	BRA         L_IntSetup55
	NOP
;Temp.c,359 :: 		for (i=0;i<12;i++){
	INFSNZ      IntSetup_i_L0+0, 1 
	INCF        IntSetup_i_L0+1, 1 
;Temp.c,362 :: 		}
	GOTO        L_IntSetup52
L_IntSetup53:
;Temp.c,364 :: 		isHeaterActive = EEPROM_Read(20);
	MOVLW       20
	MOVWF       FARG_EEPROM_Read_address+0 
	MOVLW       0
	MOVWF       FARG_EEPROM_Read_address+1 
	CALL        _EEPROM_Read+0, 0
	MOVF        R0, 0 
	MOVWF       _isHeaterActive+0 
;Temp.c,366 :: 		if (isHeaterActive == TRUE){
	MOVF        R0, 0 
	XORLW       1
	BTFSS       STATUS+0, 2 
	GOTO        L_IntSetup56
;Temp.c,367 :: 		RELAY = 1;
	BSF         PORTB+0, 5 
;Temp.c,368 :: 		} else {
	GOTO        L_IntSetup57
L_IntSetup56:
;Temp.c,369 :: 		RELAY = 0;
	BCF         PORTB+0, 5 
;Temp.c,370 :: 		}
L_IntSetup57:
;Temp.c,372 :: 		INTCON.GIE = 1;
	BSF         INTCON+0, 7 
;Temp.c,374 :: 		delay_ms(10000);
	MOVLW       127
	MOVWF       R11, 0
	MOVLW       212
	MOVWF       R12, 0
	MOVLW       49
	MOVWF       R13, 0
L_IntSetup58:
	DECFSZ      R13, 1, 1
	BRA         L_IntSetup58
	DECFSZ      R12, 1, 1
	BRA         L_IntSetup58
	DECFSZ      R11, 1, 1
	BRA         L_IntSetup58
	NOP
	NOP
;Temp.c,376 :: 		UART1_Write_Text("AT+CMGF=1\r\n");
	MOVLW       ?lstr28_Temp+0
	MOVWF       FARG_UART1_Write_Text_uart_text+0 
	MOVLW       hi_addr(?lstr28_Temp+0)
	MOVWF       FARG_UART1_Write_Text_uart_text+1 
	CALL        _UART1_Write_Text+0, 0
;Temp.c,377 :: 		delay_ms(300);
	MOVLW       4
	MOVWF       R11, 0
	MOVLW       207
	MOVWF       R12, 0
	MOVLW       1
	MOVWF       R13, 0
L_IntSetup59:
	DECFSZ      R13, 1, 1
	BRA         L_IntSetup59
	DECFSZ      R12, 1, 1
	BRA         L_IntSetup59
	DECFSZ      R11, 1, 1
	BRA         L_IntSetup59
	NOP
	NOP
;Temp.c,378 :: 		UART1_Write_Text("AT+CLTS=1\r\n");
	MOVLW       ?lstr29_Temp+0
	MOVWF       FARG_UART1_Write_Text_uart_text+0 
	MOVLW       hi_addr(?lstr29_Temp+0)
	MOVWF       FARG_UART1_Write_Text_uart_text+1 
	CALL        _UART1_Write_Text+0, 0
;Temp.c,379 :: 		delay_ms(500);
	MOVLW       7
	MOVWF       R11, 0
	MOVLW       88
	MOVWF       R12, 0
	MOVLW       89
	MOVWF       R13, 0
L_IntSetup60:
	DECFSZ      R13, 1, 1
	BRA         L_IntSetup60
	DECFSZ      R12, 1, 1
	BRA         L_IntSetup60
	DECFSZ      R11, 1, 1
	BRA         L_IntSetup60
	NOP
	NOP
;Temp.c,380 :: 		UART1_Write_Text("AT+CLIP=1\r\n");
	MOVLW       ?lstr30_Temp+0
	MOVWF       FARG_UART1_Write_Text_uart_text+0 
	MOVLW       hi_addr(?lstr30_Temp+0)
	MOVWF       FARG_UART1_Write_Text_uart_text+1 
	CALL        _UART1_Write_Text+0, 0
;Temp.c,381 :: 		delay_ms(500);
	MOVLW       7
	MOVWF       R11, 0
	MOVLW       88
	MOVWF       R12, 0
	MOVLW       89
	MOVWF       R13, 0
L_IntSetup61:
	DECFSZ      R13, 1, 1
	BRA         L_IntSetup61
	DECFSZ      R12, 1, 1
	BRA         L_IntSetup61
	DECFSZ      R11, 1, 1
	BRA         L_IntSetup61
	NOP
	NOP
;Temp.c,383 :: 		secondCounter = 0;
	CLRF        _secondCounter+0 
	CLRF        _secondCounter+1 
;Temp.c,386 :: 		}
L_end_IntSetup:
	RETURN      0
; end of _IntSetup

_WatchEnvironment:

;Temp.c,388 :: 		void WatchEnvironment(){
;Temp.c,429 :: 		if (secondCounter >= 180){
	MOVLW       128
	XORWF       _secondCounter+1, 0 
	MOVWF       R0 
	MOVLW       128
	SUBWF       R0, 0 
	BTFSS       STATUS+0, 2 
	GOTO        L__WatchEnvironment122
	MOVLW       180
	SUBWF       _secondCounter+0, 0 
L__WatchEnvironment122:
	BTFSS       STATUS+0, 0 
	GOTO        L_WatchEnvironment62
;Temp.c,431 :: 		secondCounter = 0;
	CLRF        _secondCounter+0 
	CLRF        _secondCounter+1 
;Temp.c,432 :: 		INTCON.GIE = 1;
	BSF         INTCON+0, 7 
;Temp.c,433 :: 		delay_ms(500);
	MOVLW       7
	MOVWF       R11, 0
	MOVLW       88
	MOVWF       R12, 0
	MOVLW       89
	MOVWF       R13, 0
L_WatchEnvironment63:
	DECFSZ      R13, 1, 1
	BRA         L_WatchEnvironment63
	DECFSZ      R12, 1, 1
	BRA         L_WatchEnvironment63
	DECFSZ      R11, 1, 1
	BRA         L_WatchEnvironment63
	NOP
	NOP
;Temp.c,434 :: 		memset(interruptStreamBuffer,0,sizeof(interruptStreamBuffer)-1);
	MOVLW       _interruptStreamBuffer+0
	MOVWF       FARG_memset_p1+0 
	MOVLW       hi_addr(_interruptStreamBuffer+0)
	MOVWF       FARG_memset_p1+1 
	CLRF        FARG_memset_character+0 
	MOVLW       199
	MOVWF       FARG_memset_n+0 
	MOVLW       0
	MOVWF       FARG_memset_n+1 
	CALL        _memset+0, 0
;Temp.c,435 :: 		index = 0;
	CLRF        _index+0 
	CLRF        _index+1 
;Temp.c,436 :: 		UART1_Write_Text("AT+CREG?\r\n");
	MOVLW       ?lstr31_Temp+0
	MOVWF       FARG_UART1_Write_Text_uart_text+0 
	MOVLW       hi_addr(?lstr31_Temp+0)
	MOVWF       FARG_UART1_Write_Text_uart_text+1 
	CALL        _UART1_Write_Text+0, 0
;Temp.c,438 :: 		delay_ms(500);
	MOVLW       7
	MOVWF       R11, 0
	MOVLW       88
	MOVWF       R12, 0
	MOVLW       89
	MOVWF       R13, 0
L_WatchEnvironment64:
	DECFSZ      R13, 1, 1
	BRA         L_WatchEnvironment64
	DECFSZ      R12, 1, 1
	BRA         L_WatchEnvironment64
	DECFSZ      R11, 1, 1
	BRA         L_WatchEnvironment64
	NOP
	NOP
;Temp.c,439 :: 		if (!(strstr(interruptStreamBuffer,"+CREG: 0,1") != 0 || strstr(interruptStreamBuffer,"+CREG: 0,5") != 0)){
	MOVLW       _interruptStreamBuffer+0
	MOVWF       FARG_strstr_s1+0 
	MOVLW       hi_addr(_interruptStreamBuffer+0)
	MOVWF       FARG_strstr_s1+1 
	MOVLW       ?lstr32_Temp+0
	MOVWF       FARG_strstr_s2+0 
	MOVLW       hi_addr(?lstr32_Temp+0)
	MOVWF       FARG_strstr_s2+1 
	CALL        _strstr+0, 0
	MOVLW       0
	XORWF       R1, 0 
	BTFSS       STATUS+0, 2 
	GOTO        L__WatchEnvironment123
	MOVLW       0
	XORWF       R0, 0 
L__WatchEnvironment123:
	BTFSS       STATUS+0, 2 
	GOTO        L_WatchEnvironment66
	MOVLW       _interruptStreamBuffer+0
	MOVWF       FARG_strstr_s1+0 
	MOVLW       hi_addr(_interruptStreamBuffer+0)
	MOVWF       FARG_strstr_s1+1 
	MOVLW       ?lstr33_Temp+0
	MOVWF       FARG_strstr_s2+0 
	MOVLW       hi_addr(?lstr33_Temp+0)
	MOVWF       FARG_strstr_s2+1 
	CALL        _strstr+0, 0
	MOVLW       0
	XORWF       R1, 0 
	BTFSS       STATUS+0, 2 
	GOTO        L__WatchEnvironment124
	MOVLW       0
	XORWF       R0, 0 
L__WatchEnvironment124:
	BTFSS       STATUS+0, 2 
	GOTO        L_WatchEnvironment66
	CLRF        R0 
	GOTO        L_WatchEnvironment65
L_WatchEnvironment66:
	MOVLW       1
	MOVWF       R0 
L_WatchEnvironment65:
	MOVF        R0, 1 
	BTFSS       STATUS+0, 2 
	GOTO        L_WatchEnvironment67
;Temp.c,441 :: 		if (networkFlag == 1){
	MOVF        _networkFlag+0, 0 
	XORLW       1
	BTFSS       STATUS+0, 2 
	GOTO        L_WatchEnvironment68
;Temp.c,442 :: 		sec = 0;
	CLRF        _sec+0 
	CLRF        _sec+1 
;Temp.c,443 :: 		networkFlag = 0;
	CLRF        _networkFlag+0 
;Temp.c,445 :: 		}
L_WatchEnvironment68:
;Temp.c,447 :: 		memset(interruptStreamBuffer,0,sizeof(interruptStreamBuffer)-1);
	MOVLW       _interruptStreamBuffer+0
	MOVWF       FARG_memset_p1+0 
	MOVLW       hi_addr(_interruptStreamBuffer+0)
	MOVWF       FARG_memset_p1+1 
	CLRF        FARG_memset_character+0 
	MOVLW       199
	MOVWF       FARG_memset_n+0 
	MOVLW       0
	MOVWF       FARG_memset_n+1 
	CALL        _memset+0, 0
;Temp.c,448 :: 		index = 0;
	CLRF        _index+0 
	CLRF        _index+1 
;Temp.c,449 :: 		UART1_Write_Text("AT\r\n");
	MOVLW       ?lstr34_Temp+0
	MOVWF       FARG_UART1_Write_Text_uart_text+0 
	MOVLW       hi_addr(?lstr34_Temp+0)
	MOVWF       FARG_UART1_Write_Text_uart_text+1 
	CALL        _UART1_Write_Text+0, 0
;Temp.c,450 :: 		delay_ms(500);
	MOVLW       7
	MOVWF       R11, 0
	MOVLW       88
	MOVWF       R12, 0
	MOVLW       89
	MOVWF       R13, 0
L_WatchEnvironment69:
	DECFSZ      R13, 1, 1
	BRA         L_WatchEnvironment69
	DECFSZ      R12, 1, 1
	BRA         L_WatchEnvironment69
	DECFSZ      R11, 1, 1
	BRA         L_WatchEnvironment69
	NOP
	NOP
;Temp.c,451 :: 		if (strstr(interruptStreamBuffer,"OK") != 0){
	MOVLW       _interruptStreamBuffer+0
	MOVWF       FARG_strstr_s1+0 
	MOVLW       hi_addr(_interruptStreamBuffer+0)
	MOVWF       FARG_strstr_s1+1 
	MOVLW       ?lstr35_Temp+0
	MOVWF       FARG_strstr_s2+0 
	MOVLW       hi_addr(?lstr35_Temp+0)
	MOVWF       FARG_strstr_s2+1 
	CALL        _strstr+0, 0
	MOVLW       0
	XORWF       R1, 0 
	BTFSS       STATUS+0, 2 
	GOTO        L__WatchEnvironment125
	MOVLW       0
	XORWF       R0, 0 
L__WatchEnvironment125:
	BTFSC       STATUS+0, 2 
	GOTO        L_WatchEnvironment70
;Temp.c,452 :: 		PWRKEY = 1;
	BSF         PORTC+0, 2 
;Temp.c,453 :: 		delay_ms(1000);
	MOVLW       13
	MOVWF       R11, 0
	MOVLW       175
	MOVWF       R12, 0
	MOVLW       182
	MOVWF       R13, 0
L_WatchEnvironment71:
	DECFSZ      R13, 1, 1
	BRA         L_WatchEnvironment71
	DECFSZ      R12, 1, 1
	BRA         L_WatchEnvironment71
	DECFSZ      R11, 1, 1
	BRA         L_WatchEnvironment71
	NOP
;Temp.c,454 :: 		PWRKEY = 0;
	BCF         PORTC+0, 2 
;Temp.c,455 :: 		delay_ms(7000);
	MOVLW       89
	MOVWF       R11, 0
	MOVLW       200
	MOVWF       R12, 0
	MOVLW       8
	MOVWF       R13, 0
L_WatchEnvironment72:
	DECFSZ      R13, 1, 1
	BRA         L_WatchEnvironment72
	DECFSZ      R12, 1, 1
	BRA         L_WatchEnvironment72
	DECFSZ      R11, 1, 1
	BRA         L_WatchEnvironment72
	NOP
;Temp.c,456 :: 		}
L_WatchEnvironment70:
;Temp.c,457 :: 		PWRKEY = 1;
	BSF         PORTC+0, 2 
;Temp.c,458 :: 		delay_ms(1000);
	MOVLW       13
	MOVWF       R11, 0
	MOVLW       175
	MOVWF       R12, 0
	MOVLW       182
	MOVWF       R13, 0
L_WatchEnvironment73:
	DECFSZ      R13, 1, 1
	BRA         L_WatchEnvironment73
	DECFSZ      R12, 1, 1
	BRA         L_WatchEnvironment73
	DECFSZ      R11, 1, 1
	BRA         L_WatchEnvironment73
	NOP
;Temp.c,459 :: 		PWRKEY = 0;
	BCF         PORTC+0, 2 
;Temp.c,460 :: 		delay_ms(5000);
	MOVLW       64
	MOVWF       R11, 0
	MOVLW       106
	MOVWF       R12, 0
	MOVLW       151
	MOVWF       R13, 0
L_WatchEnvironment74:
	DECFSZ      R13, 1, 1
	BRA         L_WatchEnvironment74
	DECFSZ      R12, 1, 1
	BRA         L_WatchEnvironment74
	DECFSZ      R11, 1, 1
	BRA         L_WatchEnvironment74
	NOP
	NOP
;Temp.c,461 :: 		} else {
	GOTO        L_WatchEnvironment75
L_WatchEnvironment67:
;Temp.c,462 :: 		if (networkFlag == 0){
	MOVF        _networkFlag+0, 0 
	XORLW       0
	BTFSS       STATUS+0, 2 
	GOTO        L_WatchEnvironment76
;Temp.c,463 :: 		networkFlag = 1;
	MOVLW       1
	MOVWF       _networkFlag+0 
;Temp.c,464 :: 		}}
L_WatchEnvironment76:
L_WatchEnvironment75:
;Temp.c,465 :: 		}
L_WatchEnvironment62:
;Temp.c,468 :: 		if (networkFlag == 0 && sec >= 3600){
	MOVF        _networkFlag+0, 0 
	XORLW       0
	BTFSS       STATUS+0, 2 
	GOTO        L_WatchEnvironment79
	MOVLW       128
	XORWF       _sec+1, 0 
	MOVWF       R0 
	MOVLW       128
	XORLW       14
	SUBWF       R0, 0 
	BTFSS       STATUS+0, 2 
	GOTO        L__WatchEnvironment126
	MOVLW       16
	SUBWF       _sec+0, 0 
L__WatchEnvironment126:
	BTFSS       STATUS+0, 0 
	GOTO        L_WatchEnvironment79
L__WatchEnvironment94:
;Temp.c,469 :: 		notificationFlag = 1;
	MOVLW       1
	MOVWF       _notificationFlag+0 
;Temp.c,470 :: 		RELAY = 0;
	BCF         PORTB+0, 5 
;Temp.c,471 :: 		isHeaterActive = FALSE;
	CLRF        _isHeaterActive+0 
;Temp.c,472 :: 		EEPROM_WRITE(20,0);
	MOVLW       20
	MOVWF       FARG_EEPROM_Write_address+0 
	MOVLW       0
	MOVWF       FARG_EEPROM_Write_address+1 
	CLRF        FARG_EEPROM_Write_data_+0 
	CALL        _EEPROM_Write+0, 0
;Temp.c,473 :: 		}
L_WatchEnvironment79:
;Temp.c,475 :: 		if (networkFlag == 1 && notificationFlag == 1){
	MOVF        _networkFlag+0, 0 
	XORLW       1
	BTFSS       STATUS+0, 2 
	GOTO        L_WatchEnvironment82
	MOVF        _notificationFlag+0, 0 
	XORLW       1
	BTFSS       STATUS+0, 2 
	GOTO        L_WatchEnvironment82
L__WatchEnvironment93:
;Temp.c,476 :: 		notificationFlag = 0;
	CLRF        _notificationFlag+0 
;Temp.c,477 :: 		SendSms(kezelo,"LEKAPCSOLVA","");
	MOVLW       _kezelo+0
	MOVWF       FARG_SendSms_phonenumber+0 
	MOVLW       hi_addr(_kezelo+0)
	MOVWF       FARG_SendSms_phonenumber+1 
	MOVLW       ?lstr36_Temp+0
	MOVWF       FARG_SendSms_uzenet+0 
	MOVLW       hi_addr(?lstr36_Temp+0)
	MOVWF       FARG_SendSms_uzenet+1 
	MOVLW       ?lstr37_Temp+0
	MOVWF       FARG_SendSms_info+0 
	MOVLW       hi_addr(?lstr37_Temp+0)
	MOVWF       FARG_SendSms_info+1 
	CALL        _SendSms+0, 0
;Temp.c,478 :: 		}
L_WatchEnvironment82:
;Temp.c,480 :: 		}
L_end_WatchEnvironment:
	RETURN      0
; end of _WatchEnvironment

_onCall:

;Temp.c,482 :: 		void onCall(){
;Temp.c,484 :: 		if (strstr(interruptStreamBuffer,"CLIP") != 0){
	MOVLW       _interruptStreamBuffer+0
	MOVWF       FARG_strstr_s1+0 
	MOVLW       hi_addr(_interruptStreamBuffer+0)
	MOVWF       FARG_strstr_s1+1 
	MOVLW       ?lstr38_Temp+0
	MOVWF       FARG_strstr_s2+0 
	MOVLW       hi_addr(?lstr38_Temp+0)
	MOVWF       FARG_strstr_s2+1 
	CALL        _strstr+0, 0
	MOVLW       0
	XORWF       R1, 0 
	BTFSS       STATUS+0, 2 
	GOTO        L__onCall128
	MOVLW       0
	XORWF       R0, 0 
L__onCall128:
	BTFSC       STATUS+0, 2 
	GOTO        L_onCall83
;Temp.c,485 :: 		delay_ms(500);
	MOVLW       7
	MOVWF       R11, 0
	MOVLW       88
	MOVWF       R12, 0
	MOVLW       89
	MOVWF       R13, 0
L_onCall84:
	DECFSZ      R13, 1, 1
	BRA         L_onCall84
	DECFSZ      R12, 1, 1
	BRA         L_onCall84
	DECFSZ      R11, 1, 1
	BRA         L_onCall84
	NOP
	NOP
;Temp.c,486 :: 		if (strstr(interruptStreamBuffer,kezelo) != 0){
	MOVLW       _interruptStreamBuffer+0
	MOVWF       FARG_strstr_s1+0 
	MOVLW       hi_addr(_interruptStreamBuffer+0)
	MOVWF       FARG_strstr_s1+1 
	MOVLW       _kezelo+0
	MOVWF       FARG_strstr_s2+0 
	MOVLW       hi_addr(_kezelo+0)
	MOVWF       FARG_strstr_s2+1 
	CALL        _strstr+0, 0
	MOVLW       0
	XORWF       R1, 0 
	BTFSS       STATUS+0, 2 
	GOTO        L__onCall129
	MOVLW       0
	XORWF       R0, 0 
L__onCall129:
	BTFSC       STATUS+0, 2 
	GOTO        L_onCall85
;Temp.c,487 :: 		INTCON.GIE = 0;
	BCF         INTCON+0, 7 
;Temp.c,488 :: 		UART1_Write_Text("ATH\r\n");
	MOVLW       ?lstr39_Temp+0
	MOVWF       FARG_UART1_Write_Text_uart_text+0 
	MOVLW       hi_addr(?lstr39_Temp+0)
	MOVWF       FARG_UART1_Write_Text_uart_text+1 
	CALL        _UART1_Write_Text+0, 0
;Temp.c,490 :: 		memset(interruptStreamBuffer,0,sizeof(interruptStreamBuffer)-1);
	MOVLW       _interruptStreamBuffer+0
	MOVWF       FARG_memset_p1+0 
	MOVLW       hi_addr(_interruptStreamBuffer+0)
	MOVWF       FARG_memset_p1+1 
	CLRF        FARG_memset_character+0 
	MOVLW       199
	MOVWF       FARG_memset_n+0 
	MOVLW       0
	MOVWF       FARG_memset_n+1 
	CALL        _memset+0, 0
;Temp.c,493 :: 		if (isHeaterActive == TRUE){
	MOVF        _isHeaterActive+0, 0 
	XORLW       1
	BTFSS       STATUS+0, 2 
	GOTO        L_onCall86
;Temp.c,494 :: 		isHeaterActive = FALSE;
	CLRF        _isHeaterActive+0 
;Temp.c,495 :: 		RELAY = 0;
	BCF         PORTB+0, 5 
;Temp.c,496 :: 		SendSms(kezelo,"LEKAPCSOLVA","");
	MOVLW       _kezelo+0
	MOVWF       FARG_SendSms_phonenumber+0 
	MOVLW       hi_addr(_kezelo+0)
	MOVWF       FARG_SendSms_phonenumber+1 
	MOVLW       ?lstr40_Temp+0
	MOVWF       FARG_SendSms_uzenet+0 
	MOVLW       hi_addr(?lstr40_Temp+0)
	MOVWF       FARG_SendSms_uzenet+1 
	MOVLW       ?lstr41_Temp+0
	MOVWF       FARG_SendSms_info+0 
	MOVLW       hi_addr(?lstr41_Temp+0)
	MOVWF       FARG_SendSms_info+1 
	CALL        _SendSms+0, 0
;Temp.c,497 :: 		heaterFlag = 0;
	CLRF        _heaterFlag+0 
;Temp.c,498 :: 		EEPROM_WRITE(20,0);
	MOVLW       20
	MOVWF       FARG_EEPROM_Write_address+0 
	MOVLW       0
	MOVWF       FARG_EEPROM_Write_address+1 
	CLRF        FARG_EEPROM_Write_data_+0 
	CALL        _EEPROM_Write+0, 0
;Temp.c,500 :: 		}else{
	GOTO        L_onCall87
L_onCall86:
;Temp.c,501 :: 		isHeaterActive = TRUE;
	MOVLW       1
	MOVWF       _isHeaterActive+0 
;Temp.c,502 :: 		RELAY = 1;
	BSF         PORTB+0, 5 
;Temp.c,503 :: 		SendSms(kezelo,"BEKAPCSOLVA","");
	MOVLW       _kezelo+0
	MOVWF       FARG_SendSms_phonenumber+0 
	MOVLW       hi_addr(_kezelo+0)
	MOVWF       FARG_SendSms_phonenumber+1 
	MOVLW       ?lstr42_Temp+0
	MOVWF       FARG_SendSms_uzenet+0 
	MOVLW       hi_addr(?lstr42_Temp+0)
	MOVWF       FARG_SendSms_uzenet+1 
	MOVLW       ?lstr43_Temp+0
	MOVWF       FARG_SendSms_info+0 
	MOVLW       hi_addr(?lstr43_Temp+0)
	MOVWF       FARG_SendSms_info+1 
	CALL        _SendSms+0, 0
;Temp.c,504 :: 		heaterFlag = 1;
	MOVLW       1
	MOVWF       _heaterFlag+0 
;Temp.c,505 :: 		EEPROM_WRITE(20,1);
	MOVLW       20
	MOVWF       FARG_EEPROM_Write_address+0 
	MOVLW       0
	MOVWF       FARG_EEPROM_Write_address+1 
	MOVLW       1
	MOVWF       FARG_EEPROM_Write_data_+0 
	CALL        _EEPROM_Write+0, 0
;Temp.c,506 :: 		}
L_onCall87:
;Temp.c,509 :: 		INTCON.GIE = 1;
	BSF         INTCON+0, 7 
;Temp.c,510 :: 		}
L_onCall85:
;Temp.c,511 :: 		}
L_onCall83:
;Temp.c,512 :: 		}
L_end_onCall:
	RETURN      0
; end of _onCall

_main:

;Temp.c,514 :: 		void main() {
;Temp.c,516 :: 		IntSetup();
	CALL        _IntSetup+0, 0
;Temp.c,518 :: 		while(1)
L_main88:
;Temp.c,521 :: 		WatchEnvironment();
	CALL        _WatchEnvironment+0, 0
;Temp.c,523 :: 		DelSms();
	CALL        _DelSms+0, 0
;Temp.c,526 :: 		if (InputReaderFlag == 1)
	MOVF        _InputReaderFlag+0, 0 
	XORLW       1
	BTFSS       STATUS+0, 2 
	GOTO        L_main90
;Temp.c,528 :: 		interruptStreamBuffer[index] = '\0';
	MOVLW       _interruptStreamBuffer+0
	ADDWF       _index+0, 0 
	MOVWF       FSR1 
	MOVLW       hi_addr(_interruptStreamBuffer+0)
	ADDWFC      _index+1, 0 
	MOVWF       FSR1H 
	CLRF        POSTINC1+0 
;Temp.c,530 :: 		onCall();
	CALL        _onCall+0, 0
;Temp.c,532 :: 		SmsIncome();
	CALL        _SmsIncome+0, 0
;Temp.c,534 :: 		SmsCommands();
	CALL        _SmsCommands+0, 0
;Temp.c,536 :: 		index = 0;
	CLRF        _index+0 
	CLRF        _index+1 
;Temp.c,537 :: 		InputReaderFlag = 0;
	CLRF        _InputReaderFlag+0 
;Temp.c,538 :: 		memset(interruptStreamBuffer,0,sizeof(interruptStreamBuffer)-1);
	MOVLW       _interruptStreamBuffer+0
	MOVWF       FARG_memset_p1+0 
	MOVLW       hi_addr(_interruptStreamBuffer+0)
	MOVWF       FARG_memset_p1+1 
	CLRF        FARG_memset_character+0 
	MOVLW       199
	MOVWF       FARG_memset_n+0 
	MOVLW       0
	MOVWF       FARG_memset_n+1 
	CALL        _memset+0, 0
;Temp.c,539 :: 		}
L_main90:
;Temp.c,541 :: 		}
	GOTO        L_main88
;Temp.c,542 :: 		}
L_end_main:
	GOTO        $+0
; end of _main
